
./test/temp/fibonacci0.mips.elf:     file format elf32-tradbigmips


Disassembly of section .text:

10000000 <fibonacci-0xc>:
10000000:	3c1d23ff 	lui	sp,0x23ff
10000004:	1000013e 	b	10000500 <main>
10000008:	37bdfffc 	ori	sp,sp,0xfffc

1000000c <fibonacci>:
1000000c:	27bdff78 	addiu	sp,sp,-136
10000010:	afbf0084 	sw	ra,132(sp)
10000014:	afbe0080 	sw	s8,128(sp)
10000018:	afb7007c 	sw	s7,124(sp)
1000001c:	afb60078 	sw	s6,120(sp)
10000020:	afb50074 	sw	s5,116(sp)
10000024:	afb40070 	sw	s4,112(sp)
10000028:	afb3006c 	sw	s3,108(sp)
1000002c:	afb20068 	sw	s2,104(sp)
10000030:	afb10064 	sw	s1,100(sp)
10000034:	1080012f 	beqz	a0,100004f4 <fibonacci+0x4e8>
10000038:	afb00060 	sw	s0,96(sp)
1000003c:	24020001 	li	v0,1
10000040:	1082012c 	beq	a0,v0,100004f4 <fibonacci+0x4e8>
10000044:	2482fffe 	addiu	v0,a0,-2
10000048:	afa20048 	sw	v0,72(sp)
1000004c:	2482ffff 	addiu	v0,a0,-1
10000050:	00401825 	move	v1,v0
10000054:	afa20058 	sw	v0,88(sp)
10000058:	afa00044 	sw	zero,68(sp)
1000005c:	24100001 	li	s0,1
10000060:	106000b8 	beqz	v1,10000344 <fibonacci+0x338>
10000064:	00601025 	move	v0,v1
10000068:	107000b6 	beq	v1,s0,10000344 <fibonacci+0x338>
1000006c:	00000000 	nop
10000070:	8fa30048 	lw	v1,72(sp)
10000074:	afa00038 	sw	zero,56(sp)
10000078:	afa3004c 	sw	v1,76(sp)
1000007c:	10600109 	beqz	v1,100004a4 <fibonacci+0x498>
10000080:	00602025 	move	a0,v1
10000084:	10700103 	beq	v1,s0,10000494 <fibonacci+0x488>
10000088:	00000000 	nop
1000008c:	2442fffe 	addiu	v0,v0,-2
10000090:	afa2005c 	sw	v0,92(sp)
10000094:	afa20050 	sw	v0,80(sp)
10000098:	afa0003c 	sw	zero,60(sp)
1000009c:	8fa20050 	lw	v0,80(sp)
100000a0:	00000000 	nop
100000a4:	104000f8 	beqz	v0,10000488 <fibonacci+0x47c>
100000a8:	00401825 	move	v1,v0
100000ac:	105000f2 	beq	v0,s0,10000478 <fibonacci+0x46c>
100000b0:	00000000 	nop
100000b4:	2482fffe 	addiu	v0,a0,-2
100000b8:	afa20054 	sw	v0,84(sp)
100000bc:	afa20030 	sw	v0,48(sp)
100000c0:	afa00040 	sw	zero,64(sp)
100000c4:	8fa40030 	lw	a0,48(sp)
100000c8:	00000000 	nop
100000cc:	108000e7 	beqz	a0,1000046c <fibonacci+0x460>
100000d0:	00801025 	move	v0,a0
100000d4:	109000e1 	beq	a0,s0,1000045c <fibonacci+0x450>
100000d8:	00000000 	nop
100000dc:	2463fffe 	addiu	v1,v1,-2
100000e0:	afa30034 	sw	v1,52(sp)
100000e4:	afa30024 	sw	v1,36(sp)
100000e8:	afa0002c 	sw	zero,44(sp)
100000ec:	8fa40024 	lw	a0,36(sp)
100000f0:	00000000 	nop
100000f4:	108000d5 	beqz	a0,1000044c <fibonacci+0x440>
100000f8:	00801825 	move	v1,a0
100000fc:	109000cf 	beq	a0,s0,1000043c <fibonacci+0x430>
10000100:	00000000 	nop
10000104:	2442fffe 	addiu	v0,v0,-2
10000108:	afa20028 	sw	v0,40(sp)
1000010c:	afa20018 	sw	v0,24(sp)
10000110:	afa00020 	sw	zero,32(sp)
10000114:	8fa40018 	lw	a0,24(sp)
10000118:	00000000 	nop
1000011c:	108000c4 	beqz	a0,10000430 <fibonacci+0x424>
10000120:	00801025 	move	v0,a0
10000124:	109000be 	beq	a0,s0,10000420 <fibonacci+0x414>
10000128:	0000b025 	move	s6,zero
1000012c:	2463fffe 	addiu	v1,v1,-2
10000130:	afa3001c 	sw	v1,28(sp)
10000134:	0060a025 	move	s4,v1
10000138:	128000b7 	beqz	s4,10000418 <fibonacci+0x40c>
1000013c:	0280a825 	move	s5,s4
10000140:	129000b4 	beq	s4,s0,10000414 <fibonacci+0x408>
10000144:	0000b825 	move	s7,zero
10000148:	245efffe 	addiu	s8,v0,-2
1000014c:	03c09825 	move	s3,s8
10000150:	1260000c 	beqz	s3,10000184 <fibonacci+0x178>
10000154:	02608825 	move	s1,s3
10000158:	127000ac 	beq	s3,s0,1000040c <fibonacci+0x400>
1000015c:	00009025 	move	s2,zero
10000160:	0c000003 	jal	1000000c <fibonacci>
10000164:	2624ffff 	addiu	a0,s1,-1
10000168:	2631fffe 	addiu	s1,s1,-2
1000016c:	12200077 	beqz	s1,1000034c <fibonacci+0x340>
10000170:	02429021 	addu	s2,s2,v0
10000174:	1630fffa 	bne	s1,s0,10000160 <fibonacci+0x154>
10000178:	00000000 	nop
1000017c:	26520001 	addiu	s2,s2,1
10000180:	02f2b821 	addu	s7,s7,s2
10000184:	26b5fffe 	addiu	s5,s5,-2
10000188:	12a00073 	beqz	s5,10000358 <fibonacci+0x34c>
1000018c:	00000000 	nop
10000190:	16b0ffef 	bne	s5,s0,10000150 <fibonacci+0x144>
10000194:	2673fffe 	addiu	s3,s3,-2
10000198:	26f70001 	addiu	s7,s7,1
1000019c:	02d7b021 	addu	s6,s6,s7
100001a0:	13c00070 	beqz	s8,10000364 <fibonacci+0x358>
100001a4:	03c01025 	move	v0,s8
100001a8:	17d0ffe3 	bne	s8,s0,10000138 <fibonacci+0x12c>
100001ac:	2694fffe 	addiu	s4,s4,-2
100001b0:	8fa20020 	lw	v0,32(sp)
100001b4:	26d60001 	addiu	s6,s6,1
100001b8:	00561021 	addu	v0,v0,s6
100001bc:	afa20020 	sw	v0,32(sp)
100001c0:	8fa2001c 	lw	v0,28(sp)
100001c4:	00000000 	nop
100001c8:	1040006e 	beqz	v0,10000384 <fibonacci+0x378>
100001cc:	00401825 	move	v1,v0
100001d0:	8fa20018 	lw	v0,24(sp)
100001d4:	00000000 	nop
100001d8:	2442fffe 	addiu	v0,v0,-2
100001dc:	afa20018 	sw	v0,24(sp)
100001e0:	8fa2001c 	lw	v0,28(sp)
100001e4:	00000000 	nop
100001e8:	1450ffca 	bne	v0,s0,10000114 <fibonacci+0x108>
100001ec:	00000000 	nop
100001f0:	8fa20020 	lw	v0,32(sp)
100001f4:	8fa3002c 	lw	v1,44(sp)
100001f8:	24420001 	addiu	v0,v0,1
100001fc:	00621021 	addu	v0,v1,v0
10000200:	8fa30028 	lw	v1,40(sp)
10000204:	afa2002c 	sw	v0,44(sp)
10000208:	10600066 	beqz	v1,100003a4 <fibonacci+0x398>
1000020c:	00601025 	move	v0,v1
10000210:	8fa30024 	lw	v1,36(sp)
10000214:	00000000 	nop
10000218:	2463fffe 	addiu	v1,v1,-2
1000021c:	afa30024 	sw	v1,36(sp)
10000220:	8fa30028 	lw	v1,40(sp)
10000224:	00000000 	nop
10000228:	1470ffb0 	bne	v1,s0,100000ec <fibonacci+0xe0>
1000022c:	00000000 	nop
10000230:	8fa2002c 	lw	v0,44(sp)
10000234:	8fa30040 	lw	v1,64(sp)
10000238:	24420001 	addiu	v0,v0,1
1000023c:	00621021 	addu	v0,v1,v0
10000240:	afa20040 	sw	v0,64(sp)
10000244:	8fa20034 	lw	v0,52(sp)
10000248:	00000000 	nop
1000024c:	1040005e 	beqz	v0,100003c8 <fibonacci+0x3bc>
10000250:	00401825 	move	v1,v0
10000254:	8fa20030 	lw	v0,48(sp)
10000258:	00000000 	nop
1000025c:	2442fffe 	addiu	v0,v0,-2
10000260:	afa20030 	sw	v0,48(sp)
10000264:	8fa20034 	lw	v0,52(sp)
10000268:	00000000 	nop
1000026c:	1450ff95 	bne	v0,s0,100000c4 <fibonacci+0xb8>
10000270:	00000000 	nop
10000274:	8fa20040 	lw	v0,64(sp)
10000278:	8fa3003c 	lw	v1,60(sp)
1000027c:	24420001 	addiu	v0,v0,1
10000280:	00621021 	addu	v0,v1,v0
10000284:	afa2003c 	sw	v0,60(sp)
10000288:	8fa20054 	lw	v0,84(sp)
1000028c:	00000000 	nop
10000290:	10400056 	beqz	v0,100003ec <fibonacci+0x3e0>
10000294:	00402025 	move	a0,v0
10000298:	8fa20050 	lw	v0,80(sp)
1000029c:	00000000 	nop
100002a0:	2442fffe 	addiu	v0,v0,-2
100002a4:	afa20050 	sw	v0,80(sp)
100002a8:	8fa20054 	lw	v0,84(sp)
100002ac:	00000000 	nop
100002b0:	1450ff7a 	bne	v0,s0,1000009c <fibonacci+0x90>
100002b4:	00000000 	nop
100002b8:	8fa2003c 	lw	v0,60(sp)
100002bc:	8fa30038 	lw	v1,56(sp)
100002c0:	24420001 	addiu	v0,v0,1
100002c4:	00621021 	addu	v0,v1,v0
100002c8:	afa20038 	sw	v0,56(sp)
100002cc:	8fa2005c 	lw	v0,92(sp)
100002d0:	00000000 	nop
100002d4:	10400006 	beqz	v0,100002f0 <fibonacci+0x2e4>
100002d8:	00000000 	nop
100002dc:	8fa3004c 	lw	v1,76(sp)
100002e0:	00000000 	nop
100002e4:	2463fffe 	addiu	v1,v1,-2
100002e8:	1450ff64 	bne	v0,s0,1000007c <fibonacci+0x70>
100002ec:	afa3004c 	sw	v1,76(sp)
100002f0:	8fa30038 	lw	v1,56(sp)
100002f4:	00000000 	nop
100002f8:	00431021 	addu	v0,v0,v1
100002fc:	8fa30044 	lw	v1,68(sp)
10000300:	00000000 	nop
10000304:	00621021 	addu	v0,v1,v0
10000308:	afa20044 	sw	v0,68(sp)
1000030c:	8fa20048 	lw	v0,72(sp)
10000310:	00000000 	nop
10000314:	10400075 	beqz	v0,100004ec <fibonacci+0x4e0>
10000318:	00401825 	move	v1,v0
1000031c:	8fa40058 	lw	a0,88(sp)
10000320:	00000000 	nop
10000324:	2484fffe 	addiu	a0,a0,-2
10000328:	2442fffe 	addiu	v0,v0,-2
1000032c:	10700060 	beq	v1,s0,100004b0 <fibonacci+0x4a4>
10000330:	afa40058 	sw	a0,88(sp)
10000334:	00801825 	move	v1,a0
10000338:	afa20048 	sw	v0,72(sp)
1000033c:	1460ff4a 	bnez	v1,10000068 <fibonacci+0x5c>
10000340:	00601025 	move	v0,v1
10000344:	1000ffea 	b	100002f0 <fibonacci+0x2e4>
10000348:	afa00038 	sw	zero,56(sp)
1000034c:	26b5fffe 	addiu	s5,s5,-2
10000350:	16a0ff8f 	bnez	s5,10000190 <fibonacci+0x184>
10000354:	02f2b821 	addu	s7,s7,s2
10000358:	02d7b021 	addu	s6,s6,s7
1000035c:	17c0ff92 	bnez	s8,100001a8 <fibonacci+0x19c>
10000360:	03c01025 	move	v0,s8
10000364:	8fa20020 	lw	v0,32(sp)
10000368:	00000000 	nop
1000036c:	00561021 	addu	v0,v0,s6
10000370:	afa20020 	sw	v0,32(sp)
10000374:	8fa2001c 	lw	v0,28(sp)
10000378:	00000000 	nop
1000037c:	1440ff94 	bnez	v0,100001d0 <fibonacci+0x1c4>
10000380:	00401825 	move	v1,v0
10000384:	8fa2002c 	lw	v0,44(sp)
10000388:	8fa30020 	lw	v1,32(sp)
1000038c:	00000000 	nop
10000390:	00431021 	addu	v0,v0,v1
10000394:	8fa30028 	lw	v1,40(sp)
10000398:	afa2002c 	sw	v0,44(sp)
1000039c:	1460ff9c 	bnez	v1,10000210 <fibonacci+0x204>
100003a0:	00601025 	move	v0,v1
100003a4:	8fa20040 	lw	v0,64(sp)
100003a8:	8fa3002c 	lw	v1,44(sp)
100003ac:	00000000 	nop
100003b0:	00431021 	addu	v0,v0,v1
100003b4:	afa20040 	sw	v0,64(sp)
100003b8:	8fa20034 	lw	v0,52(sp)
100003bc:	00000000 	nop
100003c0:	1440ffa4 	bnez	v0,10000254 <fibonacci+0x248>
100003c4:	00401825 	move	v1,v0
100003c8:	8fa2003c 	lw	v0,60(sp)
100003cc:	8fa30040 	lw	v1,64(sp)
100003d0:	00000000 	nop
100003d4:	00431021 	addu	v0,v0,v1
100003d8:	afa2003c 	sw	v0,60(sp)
100003dc:	8fa20054 	lw	v0,84(sp)
100003e0:	00000000 	nop
100003e4:	1440ffac 	bnez	v0,10000298 <fibonacci+0x28c>
100003e8:	00402025 	move	a0,v0
100003ec:	8fa20038 	lw	v0,56(sp)
100003f0:	8fa3003c 	lw	v1,60(sp)
100003f4:	00000000 	nop
100003f8:	00431021 	addu	v0,v0,v1
100003fc:	afa20038 	sw	v0,56(sp)
10000400:	8fa2005c 	lw	v0,92(sp)
10000404:	1000ffb3 	b	100002d4 <fibonacci+0x2c8>
10000408:	00000000 	nop
1000040c:	1000ff5d 	b	10000184 <fibonacci+0x178>
10000410:	26f70001 	addiu	s7,s7,1
10000414:	26d60001 	addiu	s6,s6,1
10000418:	1000ff61 	b	100001a0 <fibonacci+0x194>
1000041c:	245efffe 	addiu	s8,v0,-2
10000420:	8fa20020 	lw	v0,32(sp)
10000424:	00000000 	nop
10000428:	24420001 	addiu	v0,v0,1
1000042c:	afa20020 	sw	v0,32(sp)
10000430:	2462fffe 	addiu	v0,v1,-2
10000434:	1000ff64 	b	100001c8 <fibonacci+0x1bc>
10000438:	afa2001c 	sw	v0,28(sp)
1000043c:	8fa3002c 	lw	v1,44(sp)
10000440:	00000000 	nop
10000444:	24630001 	addiu	v1,v1,1
10000448:	afa3002c 	sw	v1,44(sp)
1000044c:	2442fffe 	addiu	v0,v0,-2
10000450:	afa20028 	sw	v0,40(sp)
10000454:	1000ff6c 	b	10000208 <fibonacci+0x1fc>
10000458:	00401825 	move	v1,v0
1000045c:	8fa20040 	lw	v0,64(sp)
10000460:	00000000 	nop
10000464:	24420001 	addiu	v0,v0,1
10000468:	afa20040 	sw	v0,64(sp)
1000046c:	2462fffe 	addiu	v0,v1,-2
10000470:	1000ff76 	b	1000024c <fibonacci+0x240>
10000474:	afa20034 	sw	v0,52(sp)
10000478:	8fa2003c 	lw	v0,60(sp)
1000047c:	00000000 	nop
10000480:	24420001 	addiu	v0,v0,1
10000484:	afa2003c 	sw	v0,60(sp)
10000488:	2482fffe 	addiu	v0,a0,-2
1000048c:	1000ff80 	b	10000290 <fibonacci+0x284>
10000490:	afa20054 	sw	v0,84(sp)
10000494:	8fa30038 	lw	v1,56(sp)
10000498:	00000000 	nop
1000049c:	24630001 	addiu	v1,v1,1
100004a0:	afa30038 	sw	v1,56(sp)
100004a4:	2442fffe 	addiu	v0,v0,-2
100004a8:	1000ff8a 	b	100002d4 <fibonacci+0x2c8>
100004ac:	afa2005c 	sw	v0,92(sp)
100004b0:	24040001 	li	a0,1
100004b4:	8fa20044 	lw	v0,68(sp)
100004b8:	8fbf0084 	lw	ra,132(sp)
100004bc:	8fbe0080 	lw	s8,128(sp)
100004c0:	8fb7007c 	lw	s7,124(sp)
100004c4:	8fb60078 	lw	s6,120(sp)
100004c8:	8fb50074 	lw	s5,116(sp)
100004cc:	8fb40070 	lw	s4,112(sp)
100004d0:	8fb3006c 	lw	s3,108(sp)
100004d4:	8fb20068 	lw	s2,104(sp)
100004d8:	8fb10064 	lw	s1,100(sp)
100004dc:	8fb00060 	lw	s0,96(sp)
100004e0:	00441021 	addu	v0,v0,a0
100004e4:	03e00008 	jr	ra
100004e8:	27bd0088 	addiu	sp,sp,136
100004ec:	1000fff1 	b	100004b4 <fibonacci+0x4a8>
100004f0:	00002025 	move	a0,zero
100004f4:	1000ffef 	b	100004b4 <fibonacci+0x4a8>
100004f8:	afa00044 	sw	zero,68(sp)
100004fc:	00000000 	nop

10000500 <main>:
10000500:	08000003 	j	1000000c <fibonacci>
10000504:	2404000a 	li	a0,10
